; Function Attrs: mustprogress nounwind uwtable
define hidden void @_ZN6google8protobuf8compiler4java42RepeatedImmutableMessageFieldLiteGeneratorD0Ev(ptr noundef nonnull align 8 dereferenceable(64) %this) unnamed_addr #4 align 2 personality ptr @__gxx_personality_v0 {
entry:
  store ptr getelementptr inbounds ({ [12 x ptr] }, ptr @_ZTVN6google8protobuf8compiler4java42RepeatedImmutableMessageFieldLiteGeneratorE, i64 0, i32 0, i64 2), ptr %this, align 8
  %variables_.i = getelementptr inbounds i8, ptr %this, i64 16
  %capacity_.i.i.i.i.i.i = getelementptr inbounds i8, ptr %this, i64 32
  %0 = load i64, ptr %capacity_.i.i.i.i.i.i, align 8
  %tobool.not.i.i.i.i = icmp eq i64 %0, 0
  br i1 %tobool.not.i.i.i.i, label %_ZN6google8protobuf8compiler4java42RepeatedImmutableMessageFieldLiteGeneratorD2Ev.exit, label %if.end.i.i.i.i

if.end.i.i.i.i:                                   ; preds = %entry
  %1 = load ptr, ptr %variables_.i, align 8
  %slots_.i.i.i.i.i.i.i = getelementptr inbounds i8, ptr %this, i64 24
  %2 = load ptr, ptr %slots_.i.i.i.i.i.i.i, align 8
  br label %for.body.i.i.i.i.i

for.body.i.i.i.i.i:                               ; preds = %for.inc.i.i.i.i.i, %if.end.i.i.i.i
  %i.05.i.i.i.i.i = phi i64 [ %inc.i.i.i.i.i, %for.inc.i.i.i.i.i ], [ 0, %if.end.i.i.i.i ]
  %arrayidx.i.i.i.i.i = getelementptr inbounds i8, ptr %1, i64 %i.05.i.i.i.i.i
  %3 = load i8, ptr %arrayidx.i.i.i.i.i, align 1
  %cmp.i.i.i.i.i.i = icmp sgt i8 %3, -1
  br i1 %cmp.i.i.i.i.i.i, label %if.then.i.i.i.i.i, label %for.inc.i.i.i.i.i

if.then.i.i.i.i.i:                                ; preds = %for.body.i.i.i.i.i
  %second.i.i.i.i.i.i.i.i.i.i.i = getelementptr inbounds %"union.absl::lts_20230802::container_internal::map_slot_type", ptr %2, i64 %i.05.i.i.i.i.i, i32 0, i32 1
  tail call void @_ZNSt7__cxx1112basic_stringIcSt11char_traitsIcESaIcEED1Ev(ptr noundef nonnull align 8 dereferenceable(32) %second.i.i.i.i.i.i.i.i.i.i.i) #21
  br label %for.inc.i.i.i.i.i

for.inc.i.i.i.i.i:                                ; preds = %if.then.i.i.i.i.i, %for.body.i.i.i.i.i
  %inc.i.i.i.i.i = add nuw i64 %i.05.i.i.i.i.i, 1
  %cmp.not.i.i.i.i.i = icmp eq i64 %inc.i.i.i.i.i, %0
  br i1 %cmp.not.i.i.i.i.i, label %invoke.cont13.i.i.i.i, label %for.body.i.i.i.i.i, !llvm.loop !144

invoke.cont13.i.i.i.i:                            ; preds = %for.inc.i.i.i.i.i
  %4 = load ptr, ptr %variables_.i, align 8
  %add.ptr.i.i.i.i.i = getelementptr inbounds i8, ptr %4, i64 -8
  tail call void @_ZdlPv(ptr noundef nonnull %add.ptr.i.i.i.i.i) #22
  br label %_ZN6google8protobuf8compiler4java42RepeatedImmutableMessageFieldLiteGeneratorD2Ev.exit

_ZN6google8protobuf8compiler4java42RepeatedImmutableMessageFieldLiteGeneratorD2Ev.exit: ; preds = %entry, %invoke.cont13.i.i.i.i
  tail call void @_ZN6google8protobuf8compiler4java27ImmutableFieldLiteGeneratorD2Ev(ptr noundef nonnull align 8 dereferenceable(8) %this) #21
  tail call void @_ZdlPv(ptr noundef nonnull %this) #22
  ret void
}